; Function Attrs: inlinehint nounwind uwtable
define internal fastcc i32 @mbedtls_mpi_add_mod(ptr noundef %0, ptr noundef %1, ptr noundef %2, ptr noundef %3) unnamed_addr #15 {
  %5 = tail call i32 @mbedtls_mpi_add_mpi(ptr noundef %1, ptr noundef %2, ptr noundef %3) #21
  %.not = icmp eq i32 %5, 0
  br i1 %.not, label %.preheader, label %.loopexit

.preheader:                                       ; preds = %4
  %6 = getelementptr inbounds nuw i8, ptr %0, i64 8
  br label %7

7:                                                ; preds = %.preheader, %10
  %8 = tail call i32 @mbedtls_mpi_cmp_mpi(ptr noundef %1, ptr noundef nonnull %6) #21
  %9 = icmp sgt i32 %8, -1
  br i1 %9, label %10, label %.loopexit

10:                                               ; preds = %7
  %11 = tail call i32 @mbedtls_mpi_sub_abs(ptr noundef %1, ptr noundef %1, ptr noundef nonnull %6) #21
  %.not12 = icmp eq i32 %11, 0
  br i1 %.not12, label %7, label %.loopexit, !llvm.loop !65

.loopexit:                                        ; preds = %7, %10, %4
  %.0 = phi i32 [ %5, %4 ], [ 0, %7 ], [ %11, %10 ]
  ret i32 %.0
}